target datalayout = "e-m:e-p270:32:32-p271:32:32-p272:64:64-i64:64-i128:128-f80:128-n8:16:32:64-S128"
target triple = "x86_64-pc-linux-gnu"

@stderr = external global ptr, align 8
@.str = private unnamed_addr constant [24 x i8] c"lib/pathplan/%s:%d: %s\0A\00", align 1
@.str.1 = private unnamed_addr constant [119 x i8] c"generated/home/dtcxzyw/WorkSpace/Projects/compilers/llvm-opt-benchmark/bench/graphviz/graphviz/lib/pathplan/shortest.c\00", align 1
@.str.8 = private unnamed_addr constant [21 x i8] c"triangulation failed\00", align 1

; Function Attrs: nounwind uwtable
define internal i32 @triangulate(ptr noundef %0, i64 noundef %1) #0 {
  %3 = alloca i32, align 4
  %4 = alloca ptr, align 8
  %5 = alloca i64, align 8
  %6 = alloca i64, align 8
  %7 = alloca i32, align 4
  %8 = alloca i64, align 8
  %9 = alloca i64, align 8
  store ptr %0, ptr %4, align 8, !tbaa !17
  store i64 %1, ptr %5, align 8, !tbaa !19
  %10 = load i64, ptr %5, align 8, !tbaa !19
  %11 = icmp ugt i64 %10, 3
  br i1 %11, label %12, label %84

12:                                               ; preds = %2
  call void @llvm.lifetime.start.p0(i64 8, ptr %6) #9
  store i64 0, ptr %6, align 8, !tbaa !19
  br label %13

13:                                               ; preds = %76, %12
  %14 = load i64, ptr %6, align 8, !tbaa !19
  %15 = load i64, ptr %5, align 8, !tbaa !19
  %16 = icmp ult i64 %14, %15
  br i1 %16, label %18, label %17

17:                                               ; preds = %13
  store i32 2, ptr %7, align 4
  br label %79

18:                                               ; preds = %13
  call void @llvm.lifetime.start.p0(i64 8, ptr %8) #9
  %19 = load i64, ptr %6, align 8, !tbaa !19
  %20 = add i64 %19, 1
  %21 = load i64, ptr %5, align 8, !tbaa !19
  %22 = urem i64 %20, %21
  store i64 %22, ptr %8, align 8, !tbaa !19
  call void @llvm.lifetime.start.p0(i64 8, ptr %9) #9
  %23 = load i64, ptr %6, align 8, !tbaa !19
  %24 = add i64 %23, 2
  %25 = load i64, ptr %5, align 8, !tbaa !19
  %26 = urem i64 %24, %25
  store i64 %26, ptr %9, align 8, !tbaa !19
  %27 = load i64, ptr %6, align 8, !tbaa !19
  %28 = load i64, ptr %9, align 8, !tbaa !19
  %29 = load ptr, ptr %4, align 8, !tbaa !17
  %30 = load i64, ptr %5, align 8, !tbaa !19
  %31 = call zeroext i1 @isdiagonal(i64 noundef %27, i64 noundef %28, ptr noundef %29, i64 noundef %30, ptr noundef @point_indexer)
  br i1 %31, label %32, label %72

32:                                               ; preds = %18
  %33 = load ptr, ptr %4, align 8, !tbaa !17
  %34 = load i64, ptr %6, align 8, !tbaa !19
  %35 = getelementptr inbounds nuw ptr, ptr %33, i64 %34
  %36 = load ptr, ptr %35, align 8, !tbaa !13
  %37 = load ptr, ptr %4, align 8, !tbaa !17
  %38 = load i64, ptr %8, align 8, !tbaa !19
  %39 = getelementptr inbounds nuw ptr, ptr %37, i64 %38
  %40 = load ptr, ptr %39, align 8, !tbaa !13
  %41 = load ptr, ptr %4, align 8, !tbaa !17
  %42 = load i64, ptr %9, align 8, !tbaa !19
  %43 = getelementptr inbounds nuw ptr, ptr %41, i64 %42
  %44 = load ptr, ptr %43, align 8, !tbaa !13
  %45 = call i32 @loadtriangle(ptr noundef %36, ptr noundef %40, ptr noundef %44)
  %46 = icmp ne i32 %45, 0
  br i1 %46, label %47, label %48

47:                                               ; preds = %32
  store i32 -1, ptr %3, align 4
  store i32 1, ptr %7, align 4
  br label %73

48:                                               ; preds = %32
  %49 = load i64, ptr %8, align 8, !tbaa !19
  store i64 %49, ptr %6, align 8, !tbaa !19
  br label %50

50:                                               ; preds = %64, %48
  %51 = load i64, ptr %6, align 8, !tbaa !19
  %52 = load i64, ptr %5, align 8, !tbaa !19
  %53 = sub i64 %52, 1
  %54 = icmp ult i64 %51, %53
  br i1 %54, label %55, label %67

55:                                               ; preds = %50
  %56 = load ptr, ptr %4, align 8, !tbaa !17
  %57 = load i64, ptr %6, align 8, !tbaa !19
  %58 = add i64 %57, 1
  %59 = getelementptr inbounds nuw ptr, ptr %56, i64 %58
  %60 = load ptr, ptr %59, align 8, !tbaa !13
  %61 = load ptr, ptr %4, align 8, !tbaa !17
  %62 = load i64, ptr %6, align 8, !tbaa !19
  %63 = getelementptr inbounds nuw ptr, ptr %61, i64 %62
  store ptr %60, ptr %63, align 8, !tbaa !13
  br label %64

64:                                               ; preds = %55
  %65 = load i64, ptr %6, align 8, !tbaa !19
  %66 = add i64 %65, 1
  store i64 %66, ptr %6, align 8, !tbaa !19
  br label %50, !llvm.loop !64

67:                                               ; preds = %50
  %68 = load ptr, ptr %4, align 8, !tbaa !17
  %69 = load i64, ptr %5, align 8, !tbaa !19
  %70 = sub i64 %69, 1
  %71 = call i32 @triangulate(ptr noundef %68, i64 noundef %70)
  store i32 %71, ptr %3, align 4
  store i32 1, ptr %7, align 4
  br label %73

72:                                               ; preds = %18
  store i32 0, ptr %7, align 4
  br label %73

73:                                               ; preds = %72, %67, %47
  call void @llvm.lifetime.end.p0(i64 8, ptr %9) #9
  call void @llvm.lifetime.end.p0(i64 8, ptr %8) #9
  %74 = load i32, ptr %7, align 4
  switch i32 %74, label %79 [
    i32 0, label %75
  ]

75:                                               ; preds = %73
  br label %76

76:                                               ; preds = %75
  %77 = load i64, ptr %6, align 8, !tbaa !19
  %78 = add i64 %77, 1
  store i64 %78, ptr %6, align 8, !tbaa !19
  br label %13, !llvm.loop !65

79:                                               ; preds = %73, %17
  call void @llvm.lifetime.end.p0(i64 8, ptr %6) #9
  %80 = load i32, ptr %7, align 4
  switch i32 %80, label %101 [
    i32 2, label %81
    i32 1, label %99
  ]

81:                                               ; preds = %79
  %82 = load ptr, ptr @stderr, align 8, !tbaa !15
  %83 = call i32 (ptr, ptr, ...) @fprintf(ptr noundef %82, ptr noundef @.str, ptr noundef @.str.1, i32 noundef 334, ptr noundef @.str.8) #9
  br label %98

84:                                               ; preds = %2
  %85 = load ptr, ptr %4, align 8, !tbaa !17
  %86 = getelementptr inbounds ptr, ptr %85, i64 0
  %87 = load ptr, ptr %86, align 8, !tbaa !13
  %88 = load ptr, ptr %4, align 8, !tbaa !17
  %89 = getelementptr inbounds ptr, ptr %88, i64 1
  %90 = load ptr, ptr %89, align 8, !tbaa !13
  %91 = load ptr, ptr %4, align 8, !tbaa !17
  %92 = getelementptr inbounds ptr, ptr %91, i64 2
  %93 = load ptr, ptr %92, align 8, !tbaa !13
  %94 = call i32 @loadtriangle(ptr noundef %87, ptr noundef %90, ptr noundef %93)
  %95 = icmp ne i32 %94, 0
  br i1 %95, label %96, label %97

96:                                               ; preds = %84
  store i32 -1, ptr %3, align 4
  br label %99

97:                                               ; preds = %84
  br label %98

98:                                               ; preds = %97, %81
  store i32 0, ptr %3, align 4
  br label %99

99:                                               ; preds = %98, %96, %79
  %100 = load i32, ptr %3, align 4
  ret i32 %100

101:                                              ; preds = %79
  unreachable
}