; Function Attrs: nounwind uwtable
define internal fastcc range(i32 -1, 1) i32 @triangulate(ptr noundef %0, i64 noundef %1) unnamed_addr #0 {
  br label %tailrecurse

tailrecurse:                                      ; preds = %._crit_edge, %2
  %.tr78 = phi i64 [ %1, %2 ], [ %18, %._crit_edge ]
  %3 = icmp ugt i64 %.tr78, 3
  br i1 %3, label %.preheader53, label %27

.preheader53:                                     ; preds = %tailrecurse, %.thread43
  %.03356 = phi i64 [ %7, %.thread43 ], [ 0, %tailrecurse ]
  %4 = add i64 %.03356, 2
  %5 = urem i64 %4, %.tr78
  %6 = tail call zeroext i1 @isdiagonal(i64 noundef %.03356, i64 noundef %5, ptr noundef %0, i64 noundef %.tr78, ptr noundef nonnull @point_indexer) #12
  %7 = add nuw i64 %.03356, 1
  %8 = icmp eq i64 %7, %.tr78
  br i1 %6, label %9, label %.thread43

9:                                                ; preds = %.preheader53
  %10 = select i1 %8, i64 0, i64 %7
  %11 = getelementptr inbounds nuw ptr, ptr %0, i64 %.03356
  %12 = load ptr, ptr %11, align 8, !tbaa !30
  %13 = getelementptr inbounds nuw ptr, ptr %0, i64 %10
  %14 = load ptr, ptr %13, align 8, !tbaa !30
  %15 = getelementptr inbounds nuw ptr, ptr %0, i64 %5
  %16 = load ptr, ptr %15, align 8, !tbaa !30
  %17 = tail call fastcc i32 @loadtriangle(ptr noundef %12, ptr noundef %14, ptr noundef %16)
  %.not40 = icmp eq i32 %17, 0
  br i1 %.not40, label %.preheader, label %.thread48

.preheader:                                       ; preds = %9
  %18 = add i64 %.tr78, -1
  %19 = icmp ult i64 %10, %18
  br i1 %19, label %.lr.ph, label %._crit_edge

.lr.ph:                                           ; preds = %.preheader, %.lr.ph
  %.23557 = phi i64 [ %20, %.lr.ph ], [ %10, %.preheader ]
  %20 = add nuw i64 %.23557, 1
  %21 = getelementptr inbounds nuw ptr, ptr %0, i64 %20
  %22 = load ptr, ptr %21, align 8, !tbaa !30
  %23 = getelementptr inbounds nuw ptr, ptr %0, i64 %.23557
  store ptr %22, ptr %23, align 8, !tbaa !30
  %exitcond61.not = icmp eq i64 %20, %18
  br i1 %exitcond61.not, label %._crit_edge, label %.lr.ph, !llvm.loop !71

._crit_edge:                                      ; preds = %.lr.ph, %.preheader
  br label %tailrecurse

.thread43:                                        ; preds = %.preheader53
  br i1 %8, label %24, label %.preheader53, !llvm.loop !72

24:                                               ; preds = %.thread43
  %25 = load ptr, ptr @stderr, align 8, !tbaa !10
  %26 = tail call i32 (ptr, ptr, ...) @fprintf(ptr noundef %25, ptr noundef nonnull @.str, ptr noundef nonnull @.str.1, i32 noundef 334, ptr noundef nonnull @.str.8) #14
  br label %34

27:                                               ; preds = %tailrecurse
  %28 = load ptr, ptr %0, align 8, !tbaa !30
  %29 = getelementptr inbounds nuw i8, ptr %0, i64 8
  %30 = load ptr, ptr %29, align 8, !tbaa !30
  %31 = getelementptr inbounds nuw i8, ptr %0, i64 16
  %32 = load ptr, ptr %31, align 8, !tbaa !30
  %33 = tail call fastcc i32 @loadtriangle(ptr noundef %28, ptr noundef %30, ptr noundef %32)
  %.not = icmp eq i32 %33, 0
  br i1 %.not, label %34, label %.thread48

34:                                               ; preds = %27, %24
  br label %.thread48

.thread48:                                        ; preds = %9, %27, %34
  %.3 = phi i32 [ 0, %34 ], [ -1, %27 ], [ -1, %9 ]
  ret i32 %.3
}